; Function Attrs: mustprogress nounwind uwtable
define hidden noundef i64 @_ZNK11G1EvacStats17desired_plab_sizeEj(ptr nocapture noundef nonnull readonly align 8 dereferenceable(144) %0, i32 noundef %1) local_unnamed_addr #0 align 2 {
  %3 = load i8, ptr @ResizePLAB, align 1
  %4 = trunc i8 %3 to i1
  br i1 %4, label %8, label %5

5:                                                ; preds = %2
  %6 = getelementptr inbounds i8, ptr %0, i64 48
  %7 = load i64, ptr %6, align 8
  br label %17

8:                                                ; preds = %2
  %9 = getelementptr inbounds i8, ptr %0, i64 56
  %10 = load i64, ptr %9, align 8
  %11 = zext i32 %1 to i64
  %12 = udiv i64 %10, %11
  %13 = tail call noundef i64 @_ZN4PLAB8min_sizeEv() #8
  %14 = tail call noundef i64 @_ZN4PLAB8max_sizeEv() #8
  %15 = tail call noundef i64 @llvm.umax.i64(i64 %12, i64 %13)
  %16 = tail call noundef i64 @llvm.umin.i64(i64 %15, i64 %14)
  br label %17

17:                                               ; preds = %8, %5
  %.sink5 = phi i64 [ %16, %8 ], [ %7, %5 ]
  %18 = load i32, ptr @MinObjAlignment, align 4
  %19 = add nsw i32 %18, -1
  %20 = sext i32 %19 to i64
  %21 = add i64 %.sink5, %20
  %22 = sub i32 0, %18
  %23 = sext i32 %22 to i64
  %24 = and i64 %21, %23
  ret i64 %24
}